; Function Attrs: nofree norecurse nosync nounwind memory(argmem: readwrite) uwtable
define void @ff_h264_idct_add16_10_c(ptr noundef captures(none) %0, ptr noundef readonly captures(none) %1, ptr noundef captures(none) %2, i32 noundef %3, ptr noundef readonly captures(none) %4) local_unnamed_addr #0 {
  %6 = ashr i32 %3, 1
  %7 = sext i32 %6 to i64
  br label %8

8:                                                ; preds = %5, %ff_h264_idct_dc_add_10_c.exit
  %indvars.iv = phi i64 [ 0, %5 ], [ %indvars.iv.next, %ff_h264_idct_dc_add_10_c.exit ]
  %9 = getelementptr inbounds nuw [51 x i8], ptr @scan8, i64 0, i64 %indvars.iv
  %10 = load i8, ptr %9, align 1, !tbaa !10
  %11 = zext i8 %10 to i64
  %12 = getelementptr inbounds nuw i8, ptr %4, i64 %11
  %13 = load i8, ptr %12, align 1, !tbaa !10
  switch i8 %13, label %37 [
    i8 0, label %ff_h264_idct_dc_add_10_c.exit
    i8 1, label %14
  ]

14:                                               ; preds = %8
  %.idx23 = shl nuw nsw i64 %indvars.iv, 6
  %15 = getelementptr inbounds nuw i8, ptr %2, i64 %.idx23
  %16 = load i32, ptr %15, align 4, !tbaa !18
  %.not20 = icmp eq i32 %16, 0
  br i1 %.not20, label %37, label %17

17:                                               ; preds = %14
  %18 = getelementptr inbounds nuw i32, ptr %1, i64 %indvars.iv
  %19 = load i32, ptr %18, align 4, !tbaa !18
  %20 = sext i32 %19 to i64
  %21 = getelementptr inbounds i8, ptr %0, i64 %20
  %.idx = shl nuw nsw i64 %indvars.iv, 6
  %22 = getelementptr inbounds nuw i8, ptr %2, i64 %.idx
  %23 = load i32, ptr %22, align 4, !tbaa !18
  %24 = add nsw i32 %23, 32
  %25 = ashr i32 %24, 6
  store i32 0, ptr %22, align 4, !tbaa !18
  br label %.preheader.i

.preheader.i:                                     ; preds = %34, %17
  %.01519.i = phi ptr [ %21, %17 ], [ %35, %34 ]
  %.01618.i = phi i32 [ 0, %17 ], [ %36, %34 ]
  br label %26

26:                                               ; preds = %26, %.preheader.i
  %indvars.iv.i = phi i64 [ 0, %.preheader.i ], [ %indvars.iv.next.i, %26 ]
  %27 = getelementptr inbounds nuw i16, ptr %.01519.i, i64 %indvars.iv.i
  %28 = load i16, ptr %27, align 2, !tbaa !4
  %29 = zext i16 %28 to i32
  %30 = add nsw i32 %25, %29
  %31 = tail call i32 @llvm.smax.i32(i32 %30, i32 0)
  %32 = tail call i32 @llvm.umin.i32(i32 %31, i32 1023)
  %33 = trunc nuw nsw i32 %32 to i16
  store i16 %33, ptr %27, align 2, !tbaa !4
  %indvars.iv.next.i = add nuw nsw i64 %indvars.iv.i, 1
  %exitcond.not.i = icmp eq i64 %indvars.iv.next.i, 4
  br i1 %exitcond.not.i, label %34, label %26, !llvm.loop !61

34:                                               ; preds = %26
  %35 = getelementptr inbounds i16, ptr %.01519.i, i64 %7
  %36 = add nuw nsw i32 %.01618.i, 1
  %exitcond21.not.i = icmp eq i32 %36, 4
  br i1 %exitcond21.not.i, label %ff_h264_idct_dc_add_10_c.exit, label %.preheader.i, !llvm.loop !62

37:                                               ; preds = %8, %14
  %38 = getelementptr inbounds nuw i32, ptr %1, i64 %indvars.iv
  %39 = load i32, ptr %38, align 4, !tbaa !18
  %40 = sext i32 %39 to i64
  %41 = getelementptr inbounds i8, ptr %0, i64 %40
  %.idx24 = shl nuw nsw i64 %indvars.iv, 6
  %42 = getelementptr inbounds nuw i8, ptr %2, i64 %.idx24
  tail call void @ff_h264_idct_add_10_c(ptr noundef %41, ptr noundef %42, i32 noundef %3)
  br label %ff_h264_idct_dc_add_10_c.exit

ff_h264_idct_dc_add_10_c.exit:                    ; preds = %34, %8, %37
  %indvars.iv.next = add nuw nsw i64 %indvars.iv, 1
  %exitcond.not = icmp eq i64 %indvars.iv.next, 16
  br i1 %exitcond.not, label %43, label %8, !llvm.loop !65

43:                                               ; preds = %ff_h264_idct_dc_add_10_c.exit
  ret void
}